; Function Attrs: mustprogress nounwind uwtable
define hidden noundef i32 @_ZN10HeapShared26archive_exception_instanceEP7oopDesc(ptr noundef %0) local_unnamed_addr #2 align 2 {
  %2 = alloca ptr, align 8
  %3 = load ptr, ptr @_ZN10HeapShared22_default_subgraph_infoE, align 8
  %4 = tail call noundef zeroext i1 @_ZN10HeapShared30archive_reachable_objects_fromEiP17KlassSubGraphInfoP7oopDesc(i32 noundef 1, ptr noundef %3, ptr noundef %0)
  call void @llvm.lifetime.start.p0(i64 8, ptr nonnull %2)
  store ptr %0, ptr %2, align 8
  %5 = load ptr, ptr @_ZN10HeapShared14_pending_rootsE, align 8
  %6 = icmp eq ptr %5, null
  br i1 %6, label %7, label %_ZN10HeapShared11append_rootEP7oopDesc.exit

7:                                                ; preds = %1
  %8 = tail call noundef ptr @_ZN6AnyObjnwEm8MEMFLAGS(i64 noundef 16, i8 noundef zeroext 13) #20
  %9 = tail call noundef ptr @_ZN27GrowableArrayCHeapAllocator8allocateEii8MEMFLAGS(i32 noundef 500, i32 noundef 8, i8 noundef zeroext 13) #20
  store i32 0, ptr %8, align 4
  %10 = getelementptr inbounds i8, ptr %8, i64 4
  store i32 500, ptr %10, align 4
  %11 = getelementptr inbounds i8, ptr %8, i64 8
  store ptr %9, ptr %11, align 8
  tail call void @llvm.memset.p0.i64(ptr noundef nonnull align 8 dereferenceable(4000) %9, i8 0, i64 4000, i1 false)
  store ptr %8, ptr @_ZN10HeapShared14_pending_rootsE, align 8
  br label %_ZN10HeapShared11append_rootEP7oopDesc.exit

_ZN10HeapShared11append_rootEP7oopDesc.exit:      ; preds = %1, %7
  %12 = phi ptr [ %8, %7 ], [ %5, %1 ]
  %13 = call noundef i32 @_ZN26GrowableArrayWithAllocatorIP7oopDesc18GrowableArrayCHeapIS1_L8MEMFLAGS13EEE6appendERKS1_(ptr noundef nonnull align 8 dereferenceable(16) %12, ptr noundef nonnull align 8 dereferenceable(8) %2)
  call void @llvm.lifetime.end.p0(i64 8, ptr nonnull %2)
  ret i32 %13
}